; Function Attrs: mustprogress uwtable
define internal fastcc void @_ZN2cv4gapiL17copyWithoutBorderERKNS_3MatEiRS1_iiii(ptr noundef nonnull align 8 dereferenceable(96) %0, i32 noundef %1, ptr noundef nonnull align 8 dereferenceable(96) %2, i32 noundef %3, i32 noundef %4, i32 noundef %5) unnamed_addr #4 personality ptr @__gxx_personality_v0 {
  %7 = alloca %"class.cv::Mat", align 8
  %8 = alloca %"class.cv::Rect_", align 4
  %9 = alloca %"class.cv::Mat", align 8
  %10 = alloca %"class.cv::Rect_", align 4
  %11 = alloca %"class.cv::_OutputArray", align 8
  call void @llvm.lifetime.start.p0(i64 96, ptr nonnull %7) #30
  call void @llvm.lifetime.start.p0(i64 16, ptr nonnull %8) #30
  %12 = getelementptr inbounds nuw i8, ptr %0, i64 12
  %13 = load i32, ptr %12, align 4, !tbaa !40
  %14 = shl nsw i32 %1, 1
  %15 = sub nsw i32 %13, %14
  store i32 %1, ptr %8, align 4, !tbaa !77
  %16 = getelementptr inbounds nuw i8, ptr %8, i64 4
  store i32 %4, ptr %16, align 4, !tbaa !78
  %17 = getelementptr inbounds nuw i8, ptr %8, i64 8
  store i32 %15, ptr %17, align 4, !tbaa !79
  %18 = getelementptr inbounds nuw i8, ptr %8, i64 12
  store i32 1, ptr %18, align 4, !tbaa !80
  call void @_ZN2cv3MatC1ERKS0_RKNS_5Rect_IiEE(ptr noundef nonnull align 8 dereferenceable(96) %7, ptr noundef nonnull align 8 dereferenceable(96) %0, ptr noundef nonnull align 4 dereferenceable(16) %8)
  call void @llvm.lifetime.end.p0(i64 16, ptr nonnull %8) #30
  call void @llvm.lifetime.start.p0(i64 96, ptr nonnull %9) #30
  call void @llvm.lifetime.start.p0(i64 16, ptr nonnull %10) #30
  %19 = getelementptr inbounds nuw i8, ptr %2, i64 12
  %20 = load i32, ptr %19, align 4, !tbaa !40
  %21 = shl nsw i32 %3, 1
  %22 = sub nsw i32 %20, %21
  store i32 %3, ptr %10, align 4, !tbaa !77
  %23 = getelementptr inbounds nuw i8, ptr %10, i64 4
  store i32 %5, ptr %23, align 4, !tbaa !78
  %24 = getelementptr inbounds nuw i8, ptr %10, i64 8
  store i32 %22, ptr %24, align 4, !tbaa !79
  %25 = getelementptr inbounds nuw i8, ptr %10, i64 12
  store i32 1, ptr %25, align 4, !tbaa !80
  invoke void @_ZN2cv3MatC1ERKS0_RKNS_5Rect_IiEE(ptr noundef nonnull align 8 dereferenceable(96) %9, ptr noundef nonnull align 8 dereferenceable(96) %2, ptr noundef nonnull align 4 dereferenceable(16) %10)
          to label %26 unwind label %30

26:                                               ; preds = %6
  call void @llvm.lifetime.end.p0(i64 16, ptr nonnull %10) #30
  call void @llvm.lifetime.start.p0(i64 24, ptr nonnull %11) #30
  %27 = getelementptr inbounds nuw i8, ptr %11, i64 8
  %28 = getelementptr inbounds nuw i8, ptr %11, i64 16
  store i64 0, ptr %28, align 8
  store i32 33619968, ptr %11, align 8, !tbaa !81
  store ptr %9, ptr %27, align 8, !tbaa !83
  invoke void @_ZNK2cv3Mat6copyToERKNS_12_OutputArrayE(ptr noundef nonnull align 8 dereferenceable(96) %7, ptr noundef nonnull align 8 dereferenceable(24) %11)
          to label %29 unwind label %32

29:                                               ; preds = %26
  call void @llvm.lifetime.end.p0(i64 24, ptr nonnull %11) #30
  call void @_ZN2cv3MatD1Ev(ptr noundef nonnull align 8 dereferenceable(96) %9) #30
  call void @llvm.lifetime.end.p0(i64 96, ptr nonnull %9) #30
  call void @_ZN2cv3MatD1Ev(ptr noundef nonnull align 8 dereferenceable(96) %7) #30
  call void @llvm.lifetime.end.p0(i64 96, ptr nonnull %7) #30
  ret void

30:                                               ; preds = %6
  %31 = landingpad { ptr, i32 }
          cleanup
  call void @llvm.lifetime.end.p0(i64 16, ptr nonnull %10) #30
  br label %34

32:                                               ; preds = %26
  %33 = landingpad { ptr, i32 }
          cleanup
  call void @llvm.lifetime.end.p0(i64 24, ptr nonnull %11) #30
  call void @_ZN2cv3MatD1Ev(ptr noundef nonnull align 8 dereferenceable(96) %9) #30
  br label %34

34:                                               ; preds = %32, %30
  %.pn.pn = phi { ptr, i32 } [ %33, %32 ], [ %31, %30 ]
  call void @llvm.lifetime.end.p0(i64 96, ptr nonnull %9) #30
  call void @_ZN2cv3MatD1Ev(ptr noundef nonnull align 8 dereferenceable(96) %7) #30
  call void @llvm.lifetime.end.p0(i64 96, ptr nonnull %7) #30
  resume { ptr, i32 } %.pn.pn
}